target datalayout = "e-m:e-p270:32:32-p271:32:32-p272:64:64-i64:64-i128:128-f80:128-n8:16:32:64-S128"
target triple = "x86_64-pc-linux-gnu"

%struct.nameData = type { [64 x i8] }
%struct.HeapTupleData = type { i32, %struct.ItemPointerData, i32, ptr }
%struct.ItemPointerData = type { %struct.BlockIdData, i16 }
%struct.BlockIdData = type { i16, i16 }
%struct.HeapTupleHeaderData = type { %union.anon, %struct.ItemPointerData, i16, i16, i8, [0 x i8] }
%union.anon = type { %struct.HeapTupleFields }
%struct.HeapTupleFields = type { i32, i32, %union.anon.0 }
%union.anon.0 = type { i32 }
%struct.ForeignServer = type { i32, i32, i32, ptr, ptr, ptr, ptr }
%struct.FormData_pg_foreign_server = type { i32, %struct.nameData, i32, i32 }

@.str.1 = private unnamed_addr constant [10 x i8] c"foreign.c\00", align 1
@.str.2 = private unnamed_addr constant [42 x i8] c"cache lookup failed for foreign server %u\00", align 1
@__func__.GetForeignServerExtended = private unnamed_addr constant [25 x i8] c"GetForeignServerExtended\00", align 1

; Function Attrs: inlinehint nounwind uwtable
define internal ptr @DatumGetPointer(i64 noundef %0) #3 {
  %2 = alloca i64, align 8
  store i64 %0, ptr %2, align 8
  %3 = load i64, ptr %2, align 8
  %4 = inttoptr i64 %3 to ptr
  ret ptr %4
}

; Function Attrs: inlinehint nounwind uwtable
define internal ptr @GETSTRUCT(ptr noundef %0) #3 {
  %2 = alloca ptr, align 8
  store ptr %0, ptr %2, align 8
  %3 = load ptr, ptr %2, align 8
  %4 = getelementptr inbounds nuw %struct.HeapTupleData, ptr %3, i32 0, i32 3
  %5 = load ptr, ptr %4, align 8
  %6 = load ptr, ptr %2, align 8
  %7 = getelementptr inbounds nuw %struct.HeapTupleData, ptr %6, i32 0, i32 3
  %8 = load ptr, ptr %7, align 8
  %9 = getelementptr inbounds nuw %struct.HeapTupleHeaderData, ptr %8, i32 0, i32 4
  %10 = load i8, ptr %9, align 2
  %11 = zext i8 %10 to i32
  %12 = sext i32 %11 to i64
  %13 = getelementptr inbounds i8, ptr %5, i64 %12
  ret ptr %13
}

; Function Attrs: inlinehint nounwind uwtable
define internal i64 @ObjectIdGetDatum(i32 noundef %0) #3 {
  %2 = alloca i32, align 4
  store i32 %0, ptr %2, align 4
  %3 = load i32, ptr %2, align 4
  %4 = zext i32 %3 to i64
  ret i64 %4
}

; Function Attrs: nounwind uwtable
define dso_local ptr @GetForeignServerExtended(i32 noundef %0, i16 noundef zeroext %1) #0 {
  %3 = alloca ptr, align 8
  %4 = alloca i32, align 4
  %5 = alloca i16, align 2
  %6 = alloca ptr, align 8
  %7 = alloca ptr, align 8
  %8 = alloca ptr, align 8
  %9 = alloca i64, align 8
  %10 = alloca i8, align 1
  %11 = alloca i32, align 4
  store i32 %0, ptr %4, align 4
  store i16 %1, ptr %5, align 2
  call void @llvm.lifetime.start.p0(i64 8, ptr %6) #9
  call void @llvm.lifetime.start.p0(i64 8, ptr %7) #9
  call void @llvm.lifetime.start.p0(i64 8, ptr %8) #9
  call void @llvm.lifetime.start.p0(i64 8, ptr %9) #9
  call void @llvm.lifetime.start.p0(i64 1, ptr %10) #9
  %12 = load i32, ptr %4, align 4
  %13 = call i64 @ObjectIdGetDatum(i32 noundef %12)
  %14 = call ptr @SearchSysCache1(i32 noundef 32, i64 noundef %13)
  store ptr %14, ptr %8, align 8
  %15 = load ptr, ptr %8, align 8
  %16 = icmp ne ptr %15, null
  br i1 %16, label %35, label %17

17:                                               ; preds = %2
  %18 = load i16, ptr %5, align 2
  %19 = zext i16 %18 to i32
  %20 = and i32 %19, 1
  %21 = icmp eq i32 %20, 0
  br i1 %21, label %22, label %34

22:                                               ; preds = %17
  br label %23

23:                                               ; preds = %22
  br i1 true, label %24, label %26

24:                                               ; preds = %23
  %25 = call zeroext i1 @errstart_cold(i32 noundef 21, ptr noundef null) #10
  br i1 %25, label %28, label %31

26:                                               ; preds = %23
  %27 = call zeroext i1 @errstart(i32 noundef 21, ptr noundef null)
  br i1 %27, label %28, label %31

28:                                               ; preds = %26, %24
  %29 = load i32, ptr %4, align 4
  %30 = call i32 (ptr, ...) @errmsg_internal(ptr noundef @.str.2, i32 noundef %29)
  call void @errfinish(ptr noundef @.str.1, i32 noundef 136, ptr noundef @__func__.GetForeignServerExtended)
  br label %31

31:                                               ; preds = %28, %26, %24
  unreachable

32:                                               ; No predecessors!
  br label %33

33:                                               ; preds = %32
  br label %34

34:                                               ; preds = %33, %17
  store ptr null, ptr %3, align 8
  store i32 1, ptr %11, align 4
  br label %100

35:                                               ; preds = %2
  %36 = load ptr, ptr %8, align 8
  %37 = call ptr @GETSTRUCT(ptr noundef %36)
  store ptr %37, ptr %6, align 8
  %38 = call ptr @palloc(i64 noundef 48)
  store ptr %38, ptr %7, align 8
  %39 = load i32, ptr %4, align 4
  %40 = load ptr, ptr %7, align 8
  %41 = getelementptr inbounds nuw %struct.ForeignServer, ptr %40, i32 0, i32 0
  store i32 %39, ptr %41, align 8
  %42 = load ptr, ptr %6, align 8
  %43 = getelementptr inbounds nuw %struct.FormData_pg_foreign_server, ptr %42, i32 0, i32 1
  %44 = getelementptr inbounds nuw %struct.nameData, ptr %43, i32 0, i32 0
  %45 = getelementptr inbounds [64 x i8], ptr %44, i64 0, i64 0
  %46 = call ptr @pstrdup(ptr noundef %45)
  %47 = load ptr, ptr %7, align 8
  %48 = getelementptr inbounds nuw %struct.ForeignServer, ptr %47, i32 0, i32 3
  store ptr %46, ptr %48, align 8
  %49 = load ptr, ptr %6, align 8
  %50 = getelementptr inbounds nuw %struct.FormData_pg_foreign_server, ptr %49, i32 0, i32 2
  %51 = load i32, ptr %50, align 4
  %52 = load ptr, ptr %7, align 8
  %53 = getelementptr inbounds nuw %struct.ForeignServer, ptr %52, i32 0, i32 2
  store i32 %51, ptr %53, align 8
  %54 = load ptr, ptr %6, align 8
  %55 = getelementptr inbounds nuw %struct.FormData_pg_foreign_server, ptr %54, i32 0, i32 3
  %56 = load i32, ptr %55, align 4
  %57 = load ptr, ptr %7, align 8
  %58 = getelementptr inbounds nuw %struct.ForeignServer, ptr %57, i32 0, i32 1
  store i32 %56, ptr %58, align 4
  %59 = load ptr, ptr %8, align 8
  %60 = call i64 @SysCacheGetAttr(i32 noundef 32, ptr noundef %59, i16 noundef signext 5, ptr noundef %10)
  store i64 %60, ptr %9, align 8
  %61 = load i8, ptr %10, align 1, !range !4, !noundef !5
  %62 = trunc i8 %61 to i1
  br i1 %62, label %63, label %64

63:                                               ; preds = %35
  br label %68

64:                                               ; preds = %35
  %65 = load i64, ptr %9, align 8
  %66 = call ptr @DatumGetPointer(i64 noundef %65)
  %67 = call ptr @text_to_cstring(ptr noundef %66)
  br label %68

68:                                               ; preds = %64, %63
  %69 = phi ptr [ null, %63 ], [ %67, %64 ]
  %70 = load ptr, ptr %7, align 8
  %71 = getelementptr inbounds nuw %struct.ForeignServer, ptr %70, i32 0, i32 4
  store ptr %69, ptr %71, align 8
  %72 = load ptr, ptr %8, align 8
  %73 = call i64 @SysCacheGetAttr(i32 noundef 32, ptr noundef %72, i16 noundef signext 6, ptr noundef %10)
  store i64 %73, ptr %9, align 8
  %74 = load i8, ptr %10, align 1, !range !4, !noundef !5
  %75 = trunc i8 %74 to i1
  br i1 %75, label %76, label %77

76:                                               ; preds = %68
  br label %81

77:                                               ; preds = %68
  %78 = load i64, ptr %9, align 8
  %79 = call ptr @DatumGetPointer(i64 noundef %78)
  %80 = call ptr @text_to_cstring(ptr noundef %79)
  br label %81

81:                                               ; preds = %77, %76
  %82 = phi ptr [ null, %76 ], [ %80, %77 ]
  %83 = load ptr, ptr %7, align 8
  %84 = getelementptr inbounds nuw %struct.ForeignServer, ptr %83, i32 0, i32 5
  store ptr %82, ptr %84, align 8
  %85 = load ptr, ptr %8, align 8
  %86 = call i64 @SysCacheGetAttr(i32 noundef 32, ptr noundef %85, i16 noundef signext 8, ptr noundef %10)
  store i64 %86, ptr %9, align 8
  %87 = load i8, ptr %10, align 1, !range !4, !noundef !5
  %88 = trunc i8 %87 to i1
  br i1 %88, label %89, label %92

89:                                               ; preds = %81
  %90 = load ptr, ptr %7, align 8
  %91 = getelementptr inbounds nuw %struct.ForeignServer, ptr %90, i32 0, i32 6
  store ptr null, ptr %91, align 8
  br label %97

92:                                               ; preds = %81
  %93 = load i64, ptr %9, align 8
  %94 = call ptr @untransformRelOptions(i64 noundef %93)
  %95 = load ptr, ptr %7, align 8
  %96 = getelementptr inbounds nuw %struct.ForeignServer, ptr %95, i32 0, i32 6
  store ptr %94, ptr %96, align 8
  br label %97

97:                                               ; preds = %92, %89
  %98 = load ptr, ptr %8, align 8
  call void @ReleaseSysCache(ptr noundef %98)
  %99 = load ptr, ptr %7, align 8
  store ptr %99, ptr %3, align 8
  store i32 1, ptr %11, align 4
  br label %100

100:                                              ; preds = %97, %34
  call void @llvm.lifetime.end.p0(i64 1, ptr %10) #9
  call void @llvm.lifetime.end.p0(i64 8, ptr %9) #9
  call void @llvm.lifetime.end.p0(i64 8, ptr %8) #9
  call void @llvm.lifetime.end.p0(i64 8, ptr %7) #9
  call void @llvm.lifetime.end.p0(i64 8, ptr %6) #9
  %101 = load ptr, ptr %3, align 8
  ret ptr %101
}