; Function Attrs: nounwind uwtable
define dso_local noundef ptr @GetForeignServerExtended(i32 noundef %0, i16 noundef zeroext %1) local_unnamed_addr #0 {
  %3 = alloca i8, align 1
  call void @llvm.lifetime.start.p0(i64 1, ptr nonnull %3) #8
  %4 = zext i32 %0 to i64
  %5 = tail call ptr @SearchSysCache1(i32 noundef 32, i64 noundef %4) #8
  %.not = icmp eq ptr %5, null
  br i1 %.not, label %6, label %12

6:                                                ; preds = %2
  %7 = and i16 %1, 1
  %8 = icmp eq i16 %7, 0
  br i1 %8, label %9, label %53

9:                                                ; preds = %6
  %10 = tail call zeroext i1 @errstart_cold(i32 noundef 21, ptr noundef null) #9
  tail call void @llvm.assume(i1 %10)
  %11 = tail call i32 (ptr, ...) @errmsg_internal(ptr noundef nonnull @.str.2, i32 noundef %0) #8
  tail call void @errfinish(ptr noundef nonnull @.str.1, i32 noundef 136, ptr noundef nonnull @__func__.GetForeignServerExtended) #8
  unreachable

12:                                               ; preds = %2
  %13 = getelementptr i8, ptr %5, i64 16
  %.val = load ptr, ptr %13, align 8
  %14 = getelementptr inbounds nuw i8, ptr %.val, i64 22
  %15 = load i8, ptr %14, align 2
  %16 = zext i8 %15 to i64
  %17 = getelementptr inbounds nuw i8, ptr %.val, i64 %16
  %18 = tail call ptr @palloc(i64 noundef 48) #8
  store i32 %0, ptr %18, align 8
  %19 = getelementptr inbounds nuw i8, ptr %17, i64 4
  %20 = tail call ptr @pstrdup(ptr noundef nonnull %19) #8
  %21 = getelementptr inbounds nuw i8, ptr %18, i64 16
  store ptr %20, ptr %21, align 8
  %22 = getelementptr inbounds nuw i8, ptr %17, i64 68
  %23 = load i32, ptr %22, align 4
  %24 = getelementptr inbounds nuw i8, ptr %18, i64 8
  store i32 %23, ptr %24, align 8
  %25 = getelementptr inbounds nuw i8, ptr %17, i64 72
  %26 = load i32, ptr %25, align 4
  %27 = getelementptr inbounds nuw i8, ptr %18, i64 4
  store i32 %26, ptr %27, align 4
  %28 = call i64 @SysCacheGetAttr(i32 noundef 32, ptr noundef nonnull %5, i16 noundef signext 5, ptr noundef nonnull %3) #8
  %29 = load i8, ptr %3, align 1, !range !4, !noundef !5
  %30 = trunc nuw i8 %29 to i1
  br i1 %30, label %34, label %31

31:                                               ; preds = %12
  %32 = inttoptr i64 %28 to ptr
  %33 = call ptr @text_to_cstring(ptr noundef %32) #8
  br label %34

34:                                               ; preds = %12, %31
  %35 = phi ptr [ %33, %31 ], [ null, %12 ]
  %36 = getelementptr inbounds nuw i8, ptr %18, i64 24
  store ptr %35, ptr %36, align 8
  %37 = call i64 @SysCacheGetAttr(i32 noundef 32, ptr noundef nonnull %5, i16 noundef signext 6, ptr noundef nonnull %3) #8
  %38 = load i8, ptr %3, align 1, !range !4, !noundef !5
  %39 = trunc nuw i8 %38 to i1
  br i1 %39, label %43, label %40

40:                                               ; preds = %34
  %41 = inttoptr i64 %37 to ptr
  %42 = call ptr @text_to_cstring(ptr noundef %41) #8
  br label %43

43:                                               ; preds = %34, %40
  %44 = phi ptr [ %42, %40 ], [ null, %34 ]
  %45 = getelementptr inbounds nuw i8, ptr %18, i64 32
  store ptr %44, ptr %45, align 8
  %46 = call i64 @SysCacheGetAttr(i32 noundef 32, ptr noundef nonnull %5, i16 noundef signext 8, ptr noundef nonnull %3) #8
  %47 = load i8, ptr %3, align 1, !range !4, !noundef !5
  %48 = trunc nuw i8 %47 to i1
  br i1 %48, label %51, label %49

49:                                               ; preds = %43
  %50 = call ptr @untransformRelOptions(i64 noundef %46) #8
  br label %51

51:                                               ; preds = %43, %49
  %.sink = phi ptr [ %50, %49 ], [ null, %43 ]
  %52 = getelementptr inbounds nuw i8, ptr %18, i64 40
  store ptr %.sink, ptr %52, align 8
  call void @ReleaseSysCache(ptr noundef nonnull %5) #8
  br label %53

53:                                               ; preds = %6, %51
  %.0 = phi ptr [ %18, %51 ], [ null, %6 ]
  call void @llvm.lifetime.end.p0(i64 1, ptr nonnull %3) #8
  ret ptr %.0
}